target datalayout = "e-m:e-p270:32:32-p271:32:32-p272:64:64-i64:64-i128:128-f80:128-n8:16:32:64-S128"
target triple = "x86_64-pc-linux-gnu"

%struct.png_color_8_struct = type { i8, i8, i8, i8, i8 }
%struct.png_color_16_struct = type { i8, i16, i16, i16, i16 }
%struct.png_colorspace = type { i32, %struct.png_xy, %struct.png_XYZ, i16, i16 }
%struct.png_xy = type { i32, i32, i32, i32, i32, i32, i32, i32 }
%struct.png_XYZ = type { i32, i32, i32, i32, i32, i32, i32, i32, i32 }
%struct.png_info_def = type { i32, i32, i32, i64, ptr, i16, i16, i8, i8, i8, i8, i8, i8, i8, i8, [8 x i8], %struct.png_colorspace, ptr, ptr, i32, i32, i32, ptr, %struct.png_time_struct, %struct.png_color_8_struct, ptr, %struct.png_color_16_struct, %struct.png_color_16_struct, i32, i32, i8, i32, i32, i8, i32, ptr, ptr, ptr, ptr, i32, i32, ptr, ptr, i8, i8, i32, ptr, i32, ptr, i32, i8, ptr, ptr, ptr }
%struct.png_time_struct = type { i16, i8, i8, i8, i8, i8 }

; Function Attrs: nounwind uwtable
define i32 @png_get_eXIf_1(ptr noalias noundef %0, ptr noalias noundef %1, ptr noundef %2, ptr noundef %3) #0 {
  %5 = alloca i32, align 4
  %6 = alloca ptr, align 8
  %7 = alloca ptr, align 8
  %8 = alloca ptr, align 8
  %9 = alloca ptr, align 8
  store ptr %0, ptr %6, align 8
  store ptr %1, ptr %7, align 8
  store ptr %2, ptr %8, align 8
  store ptr %3, ptr %9, align 8
  %10 = load ptr, ptr %6, align 8
  %11 = icmp ne ptr %10, null
  br i1 %11, label %12, label %33

12:                                               ; preds = %4
  %13 = load ptr, ptr %7, align 8
  %14 = icmp ne ptr %13, null
  br i1 %14, label %15, label %33

15:                                               ; preds = %12
  %16 = load ptr, ptr %7, align 8
  %17 = getelementptr inbounds %struct.png_info_def, ptr %16, i32 0, i32 2
  %18 = load i32, ptr %17, align 8
  %19 = and i32 %18, 65536
  %20 = icmp ne i32 %19, 0
  br i1 %20, label %21, label %33

21:                                               ; preds = %15
  %22 = load ptr, ptr %9, align 8
  %23 = icmp ne ptr %22, null
  br i1 %23, label %24, label %33

24:                                               ; preds = %21
  %25 = load ptr, ptr %7, align 8
  %26 = getelementptr inbounds %struct.png_info_def, ptr %25, i32 0, i32 34
  %27 = load i32, ptr %26, align 4
  %28 = load ptr, ptr %8, align 8
  store i32 %27, ptr %28, align 4
  %29 = load ptr, ptr %7, align 8
  %30 = getelementptr inbounds %struct.png_info_def, ptr %29, i32 0, i32 35
  %31 = load ptr, ptr %30, align 8
  %32 = load ptr, ptr %9, align 8
  store ptr %31, ptr %32, align 8
  store i32 65536, ptr %5, align 4
  br label %34

33:                                               ; preds = %21, %15, %12, %4
  store i32 0, ptr %5, align 4
  br label %34

34:                                               ; preds = %33, %24
  %35 = load i32, ptr %5, align 4
  ret i32 %35
}