; Function Attrs: mustprogress nofree norecurse nosync nounwind willreturn memory(argmem: readwrite) uwtable
define range(i32 0, 65537) i32 @png_get_eXIf_1(ptr noalias noundef readnone %0, ptr noalias noundef readonly %1, ptr nocapture noundef writeonly %2, ptr noundef writeonly %3) local_unnamed_addr #3 {
  %5 = icmp ne ptr %0, null
  %6 = icmp ne ptr %1, null
  %or.cond = and i1 %5, %6
  br i1 %or.cond, label %7, label %18

7:                                                ; preds = %4
  %8 = getelementptr inbounds i8, ptr %1, i64 8
  %9 = load i32, ptr %8, align 8
  %10 = and i32 %9, 65536
  %11 = icmp ne i32 %10, 0
  %12 = icmp ne ptr %3, null
  %or.cond3 = and i1 %12, %11
  br i1 %or.cond3, label %13, label %18

13:                                               ; preds = %7
  %14 = getelementptr inbounds i8, ptr %1, i64 236
  %15 = load i32, ptr %14, align 4
  store i32 %15, ptr %2, align 4
  %16 = getelementptr inbounds i8, ptr %1, i64 240
  %17 = load ptr, ptr %16, align 8
  store ptr %17, ptr %3, align 8
  br label %18

18:                                               ; preds = %4, %7, %13
  %.0 = phi i32 [ 65536, %13 ], [ 0, %7 ], [ 0, %4 ]
  ret i32 %.0
}